; Function Attrs: nounwind uwtable
define internal range(i32 -1, 3) i32 @lj_ffh_tostring(ptr noundef %0) #2 {
  %2 = tail call ptr @lj_lib_checkany(ptr noundef %0, i32 noundef 1) #11
  %3 = getelementptr inbounds nuw i8, ptr %2, i64 8
  %4 = getelementptr inbounds nuw i8, ptr %0, i64 40
  store ptr %3, ptr %4, align 8, !tbaa !4
  %5 = tail call ptr @lj_meta_lookup(ptr noundef %0, ptr noundef %2, i32 noundef 18) #11
  %6 = load i64, ptr %5, align 8, !tbaa !14
  %7 = icmp eq i64 %6, -1
  br i1 %7, label %12, label %8

8:                                                ; preds = %1
  %9 = getelementptr inbounds nuw i8, ptr %0, i64 32
  %10 = load ptr, ptr %9, align 8, !tbaa !19
  %11 = getelementptr inbounds i8, ptr %10, i64 -16
  store i64 %6, ptr %11, align 8, !tbaa !14
  br label %29

12:                                               ; preds = %1
  %13 = getelementptr inbounds nuw i8, ptr %0, i64 16
  %14 = load i64, ptr %13, align 8, !tbaa !20
  %15 = inttoptr i64 %14 to ptr
  %16 = getelementptr inbounds nuw i8, ptr %15, i64 16
  %17 = load i64, ptr %16, align 8, !tbaa !55
  %18 = getelementptr inbounds nuw i8, ptr %15, i64 24
  %19 = load i64, ptr %18, align 8, !tbaa !56
  %.not = icmp ult i64 %17, %19
  br i1 %.not, label %22, label %20, !prof !57

20:                                               ; preds = %12
  %21 = tail call i32 @lj_gc_step(ptr noundef nonnull %0) #11
  br label %22

22:                                               ; preds = %20, %12
  %23 = getelementptr inbounds nuw i8, ptr %0, i64 32
  %24 = load ptr, ptr %23, align 8, !tbaa !19
  %25 = getelementptr inbounds i8, ptr %24, i64 -16
  %26 = tail call ptr @lj_strfmt_obj(ptr noundef nonnull %0, ptr noundef %24) #11
  %27 = ptrtoint ptr %26 to i64
  %28 = or i64 %27, -703687441776640
  store i64 %28, ptr %25, align 8, !tbaa !14
  br label %29

29:                                               ; preds = %22, %8
  %.0 = phi i32 [ 2, %22 ], [ -1, %8 ]
  ret i32 %.0
}